target datalayout = "e-m:e-p270:32:32-p271:32:32-p272:64:64-i64:64-i128:128-f80:128-n8:16:32:64-S128"
target triple = "x86_64-pc-linux-gnu"

; Function Attrs: mustprogress nounwind uwtable
define internal noundef i32 @_ZN2cvL9normL2SqrIhiEET0_PKT_i(ptr noundef %0, i32 noundef %1) #1 {
  %3 = alloca ptr, align 8
  %4 = alloca i32, align 4
  %5 = alloca i32, align 4
  %6 = alloca i32, align 4
  %7 = alloca i32, align 4
  store ptr %0, ptr %3, align 8
  store i32 %1, ptr %4, align 4
  store i32 0, ptr %5, align 4
  store i32 0, ptr %6, align 4
  br label %8

8:                                                ; preds = %24, %2
  %9 = load i32, ptr %6, align 4
  %10 = load i32, ptr %4, align 4
  %11 = icmp slt i32 %9, %10
  br i1 %11, label %12, label %27

12:                                               ; preds = %8
  %13 = load ptr, ptr %3, align 8
  %14 = load i32, ptr %6, align 4
  %15 = sext i32 %14 to i64
  %16 = getelementptr inbounds i8, ptr %13, i64 %15
  %17 = load i8, ptr %16, align 1
  %18 = zext i8 %17 to i32
  store i32 %18, ptr %7, align 4
  %19 = load i32, ptr %7, align 4
  %20 = load i32, ptr %7, align 4
  %21 = mul nsw i32 %19, %20
  %22 = load i32, ptr %5, align 4
  %23 = add nsw i32 %22, %21
  store i32 %23, ptr %5, align 4
  br label %24

24:                                               ; preds = %12
  %25 = load i32, ptr %6, align 4
  %26 = add nsw i32 %25, 1
  store i32 %26, ptr %6, align 4
  br label %8, !llvm.loop !69

27:                                               ; preds = %8
  %28 = load i32, ptr %5, align 4
  ret i32 %28
}

; Function Attrs: mustprogress uwtable
define linkonce_odr hidden noundef i32 @_ZN2cv7normL2_IhiEEiPKT_PKhPT0_ii(ptr noundef %0, ptr noundef %1, ptr noundef %2, i32 noundef %3, i32 noundef %4) #0 comdat {
  %6 = alloca ptr, align 8
  %7 = alloca ptr, align 8
  %8 = alloca ptr, align 8
  %9 = alloca i32, align 4
  %10 = alloca i32, align 4
  %11 = alloca i32, align 4
  %12 = alloca i32, align 4
  %13 = alloca i32, align 4
  %14 = alloca i8, align 1
  store ptr %0, ptr %6, align 8
  store ptr %1, ptr %7, align 8
  store ptr %2, ptr %8, align 8
  store i32 %3, ptr %9, align 4
  store i32 %4, ptr %10, align 4
  %15 = load ptr, ptr %8, align 8
  %16 = load i32, ptr %15, align 4
  store i32 %16, ptr %11, align 4
  %17 = load ptr, ptr %7, align 8
  %18 = icmp ne ptr %17, null
  br i1 %18, label %27, label %19

19:                                               ; preds = %5
  %20 = load ptr, ptr %6, align 8
  %21 = load i32, ptr %9, align 4
  %22 = load i32, ptr %10, align 4
  %23 = mul nsw i32 %21, %22
  %24 = call noundef i32 @_ZN2cvL9normL2SqrIhiEET0_PKT_i(ptr noundef %20, i32 noundef %23)
  %25 = load i32, ptr %11, align 4
  %26 = add nsw i32 %25, %24
  store i32 %26, ptr %11, align 4
  br label %70

27:                                               ; preds = %5
  store i32 0, ptr %12, align 4
  br label %28

28:                                               ; preds = %62, %27
  %29 = load i32, ptr %12, align 4
  %30 = load i32, ptr %9, align 4
  %31 = icmp slt i32 %29, %30
  br i1 %31, label %32, label %69

32:                                               ; preds = %28
  %33 = load ptr, ptr %7, align 8
  %34 = load i32, ptr %12, align 4
  %35 = sext i32 %34 to i64
  %36 = getelementptr inbounds i8, ptr %33, i64 %35
  %37 = load i8, ptr %36, align 1
  %38 = icmp ne i8 %37, 0
  br i1 %38, label %39, label %61

39:                                               ; preds = %32
  store i32 0, ptr %13, align 4
  br label %40

40:                                               ; preds = %57, %39
  %41 = load i32, ptr %13, align 4
  %42 = load i32, ptr %10, align 4
  %43 = icmp slt i32 %41, %42
  br i1 %43, label %44, label %60

44:                                               ; preds = %40
  %45 = load ptr, ptr %6, align 8
  %46 = load i32, ptr %13, align 4
  %47 = sext i32 %46 to i64
  %48 = getelementptr inbounds i8, ptr %45, i64 %47
  %49 = load i8, ptr %48, align 1
  store i8 %49, ptr %14, align 1
  %50 = load i8, ptr %14, align 1
  %51 = zext i8 %50 to i32
  %52 = load i8, ptr %14, align 1
  %53 = zext i8 %52 to i32
  %54 = mul nsw i32 %51, %53
  %55 = load i32, ptr %11, align 4
  %56 = add nsw i32 %55, %54
  store i32 %56, ptr %11, align 4
  br label %57

57:                                               ; preds = %44
  %58 = load i32, ptr %13, align 4
  %59 = add nsw i32 %58, 1
  store i32 %59, ptr %13, align 4
  br label %40, !llvm.loop !67

60:                                               ; preds = %40
  br label %61

61:                                               ; preds = %60, %32
  br label %62

62:                                               ; preds = %61
  %63 = load i32, ptr %12, align 4
  %64 = add nsw i32 %63, 1
  store i32 %64, ptr %12, align 4
  %65 = load i32, ptr %10, align 4
  %66 = load ptr, ptr %6, align 8
  %67 = sext i32 %65 to i64
  %68 = getelementptr inbounds i8, ptr %66, i64 %67
  store ptr %68, ptr %6, align 8
  br label %28, !llvm.loop !68

69:                                               ; preds = %28
  br label %70

70:                                               ; preds = %69, %19
  %71 = load i32, ptr %11, align 4
  %72 = load ptr, ptr %8, align 8
  store i32 %71, ptr %72, align 4
  ret i32 0
}

; Function Attrs: mustprogress uwtable
define internal noundef i32 @_ZN2cvL9normL2_8uEPKhS1_Piii(ptr noundef %0, ptr noundef %1, ptr noundef %2, i32 noundef %3, i32 noundef %4) #0 {
  %6 = alloca ptr, align 8
  %7 = alloca ptr, align 8
  %8 = alloca ptr, align 8
  %9 = alloca i32, align 4
  %10 = alloca i32, align 4
  store ptr %0, ptr %6, align 8
  store ptr %1, ptr %7, align 8
  store ptr %2, ptr %8, align 8
  store i32 %3, ptr %9, align 4
  store i32 %4, ptr %10, align 4
  %11 = load ptr, ptr %6, align 8
  %12 = load ptr, ptr %7, align 8
  %13 = load ptr, ptr %8, align 8
  %14 = load i32, ptr %9, align 4
  %15 = load i32, ptr %10, align 4
  %16 = call noundef i32 @_ZN2cv7normL2_IhiEEiPKT_PKhPT0_ii(ptr noundef %11, ptr noundef %12, ptr noundef %13, i32 noundef %14, i32 noundef %15)
  ret i32 %16
}