; Function Attrs: mustprogress nofree norecurse nosync nounwind memory(argmem: readwrite) uwtable
define internal noundef i32 @_ZN2cvL9normL2_8uEPKhS1_Piii(ptr noundef readonly captures(none) %0, ptr noundef readonly %1, ptr noundef captures(none) %2, i32 noundef %3, i32 noundef %4) #6 {
  %6 = load i32, ptr %2, align 4
  %.not.i = icmp eq ptr %1, null
  br i1 %.not.i, label %18, label %.preheader27.i

.preheader27.i:                                   ; preds = %5
  %7 = icmp sgt i32 %3, 0
  br i1 %7, label %.lr.ph34.i, label %_ZN2cv7normL2_IhiEEiPKT_PKhPT0_ii.exit

.lr.ph34.i:                                       ; preds = %.preheader27.i
  %8 = icmp sgt i32 %4, 0
  %9 = sext i32 %4 to i64
  br i1 %8, label %.lr.ph34.split.us.preheader.i, label %_ZN2cv7normL2_IhiEEiPKT_PKhPT0_ii.exit

.lr.ph34.split.us.preheader.i:                    ; preds = %.lr.ph34.i
  %wide.trip.count42.i = zext nneg i32 %3 to i64
  %wide.trip.count.i = zext nneg i32 %4 to i64
  br label %.lr.ph34.split.us.i

.lr.ph34.split.us.i:                              ; preds = %..loopexit_crit_edge.us.i, %.lr.ph34.split.us.preheader.i
  %indvars.iv39.i = phi i64 [ 0, %.lr.ph34.split.us.preheader.i ], [ %indvars.iv.next40.i, %..loopexit_crit_edge.us.i ]
  %.033.us.i = phi ptr [ %0, %.lr.ph34.split.us.preheader.i ], [ %17, %..loopexit_crit_edge.us.i ]
  %.131.us.i = phi i32 [ %6, %.lr.ph34.split.us.preheader.i ], [ %.3.us.i, %..loopexit_crit_edge.us.i ]
  %10 = getelementptr inbounds nuw i8, ptr %1, i64 %indvars.iv39.i
  %11 = load i8, ptr %10, align 1
  %.not26.us.i = icmp eq i8 %11, 0
  br i1 %.not26.us.i, label %..loopexit_crit_edge.us.i, label %.preheader.us.i

.preheader.us.i:                                  ; preds = %.lr.ph34.split.us.i, %.preheader.us.i
  %indvars.iv.i = phi i64 [ %indvars.iv.next.i, %.preheader.us.i ], [ 0, %.lr.ph34.split.us.i ]
  %.229.us.i = phi i32 [ %16, %.preheader.us.i ], [ %.131.us.i, %.lr.ph34.split.us.i ]
  %12 = getelementptr inbounds nuw i8, ptr %.033.us.i, i64 %indvars.iv.i
  %13 = load i8, ptr %12, align 1
  %14 = zext i8 %13 to i32
  %15 = mul nuw nsw i32 %14, %14
  %16 = add nsw i32 %15, %.229.us.i
  %indvars.iv.next.i = add nuw nsw i64 %indvars.iv.i, 1
  %exitcond.not.i = icmp eq i64 %indvars.iv.next.i, %wide.trip.count.i
  br i1 %exitcond.not.i, label %..loopexit_crit_edge.us.i, label %.preheader.us.i, !llvm.loop !94

..loopexit_crit_edge.us.i:                        ; preds = %.preheader.us.i, %.lr.ph34.split.us.i
  %.3.us.i = phi i32 [ %.131.us.i, %.lr.ph34.split.us.i ], [ %16, %.preheader.us.i ]
  %indvars.iv.next40.i = add nuw nsw i64 %indvars.iv39.i, 1
  %17 = getelementptr inbounds nuw i8, ptr %.033.us.i, i64 %9
  %exitcond43.not.i = icmp eq i64 %indvars.iv.next40.i, %wide.trip.count42.i
  br i1 %exitcond43.not.i, label %_ZN2cv7normL2_IhiEEiPKT_PKhPT0_ii.exit, label %.lr.ph34.split.us.i, !llvm.loop !95

18:                                               ; preds = %5
  %19 = mul nsw i32 %4, %3
  %20 = icmp sgt i32 %19, 0
  br i1 %20, label %.lr.ph.preheader.i.i, label %_ZN2cvL9normL2SqrIhiEET0_PKT_i.exit.i

.lr.ph.preheader.i.i:                             ; preds = %18
  %wide.trip.count.i.i = zext nneg i32 %19 to i64
  br label %.lr.ph.i.i

.lr.ph.i.i:                                       ; preds = %.lr.ph.i.i, %.lr.ph.preheader.i.i
  %indvars.iv.i.i = phi i64 [ 0, %.lr.ph.preheader.i.i ], [ %indvars.iv.next.i.i, %.lr.ph.i.i ]
  %.010.i.i = phi i32 [ 0, %.lr.ph.preheader.i.i ], [ %25, %.lr.ph.i.i ]
  %21 = getelementptr inbounds nuw i8, ptr %0, i64 %indvars.iv.i.i
  %22 = load i8, ptr %21, align 1
  %23 = zext i8 %22 to i32
  %24 = mul nuw nsw i32 %23, %23
  %25 = add nuw nsw i32 %24, %.010.i.i
  %indvars.iv.next.i.i = add nuw nsw i64 %indvars.iv.i.i, 1
  %exitcond.not.i.i = icmp eq i64 %indvars.iv.next.i.i, %wide.trip.count.i.i
  br i1 %exitcond.not.i.i, label %_ZN2cvL9normL2SqrIhiEET0_PKT_i.exit.i, label %.lr.ph.i.i, !llvm.loop !96

_ZN2cvL9normL2SqrIhiEET0_PKT_i.exit.i:            ; preds = %.lr.ph.i.i, %18
  %.0.lcssa.i.i = phi i32 [ 0, %18 ], [ %25, %.lr.ph.i.i ]
  %26 = add nsw i32 %.0.lcssa.i.i, %6
  br label %_ZN2cv7normL2_IhiEEiPKT_PKhPT0_ii.exit

_ZN2cv7normL2_IhiEEiPKT_PKhPT0_ii.exit:           ; preds = %..loopexit_crit_edge.us.i, %.preheader27.i, %.lr.ph34.i, %_ZN2cvL9normL2SqrIhiEET0_PKT_i.exit.i
  %.024.i = phi i32 [ %26, %_ZN2cvL9normL2SqrIhiEET0_PKT_i.exit.i ], [ %6, %.preheader27.i ], [ %6, %.lr.ph34.i ], [ %.3.us.i, %..loopexit_crit_edge.us.i ]
  store i32 %.024.i, ptr %2, align 4
  ret i32 0
}